target datalayout = "e-m:e-p270:32:32-p271:32:32-p272:64:64-i64:64-i128:128-f80:128-n8:16:32:64-S128"
target triple = "x86_64-pc-linux-gnu"

%"class.llvm::pdb::NativeRawSymbol" = type { %"class.llvm::pdb::IPDBRawSymbol", ptr, i32, i32 }
%"class.llvm::pdb::IPDBRawSymbol" = type { ptr }
%"class.llvm::StringRef" = type { ptr, i64 }
%"class.std::__cxx11::basic_string" = type { %"struct.std::__cxx11::basic_string<char>::_Alloc_hider", i64, %union.anon.54 }
%"struct.std::__cxx11::basic_string<char>::_Alloc_hider" = type { ptr }
%union.anon.54 = type { i64, [8 x i8] }
%"struct.llvm::pdb::Variant" = type { i32, %union.anon.55 }
%union.anon.55 = type { i64 }

@.str = private unnamed_addr constant [14 x i8] c"classParentId\00", align 1
@.str.1 = private unnamed_addr constant [16 x i8] c"lexicalParentId\00", align 1
@.str.2 = private unnamed_addr constant [5 x i8] c"name\00", align 1
@.str.3 = private unnamed_addr constant [7 x i8] c"typeId\00", align 1
@.str.4 = private unnamed_addr constant [9 x i8] c"dataKind\00", align 1
@.str.5 = private unnamed_addr constant [13 x i8] c"locationType\00", align 1
@.str.6 = private unnamed_addr constant [10 x i8] c"constType\00", align 1
@.str.7 = private unnamed_addr constant [14 x i8] c"unalignedType\00", align 1
@.str.8 = private unnamed_addr constant [13 x i8] c"volatileType\00", align 1
@.str.9 = private unnamed_addr constant [6 x i8] c"value\00", align 1

; Function Attrs: mustprogress nounwind uwtable
define linkonce_odr hidden noundef i64 @_ZNSt11char_traitsIcE6lengthEPKc(ptr noundef %0) #0 comdat align 2 {
  %2 = alloca ptr, align 8
  store ptr %0, ptr %2, align 8
  %3 = load ptr, ptr %2, align 8
  %4 = call i64 @strlen(ptr noundef %3) #5
  ret i64 %4
}

; Function Attrs: mustprogress nounwind uwtable
define linkonce_odr hidden void @_ZN4llvm3pdb7VariantD2Ev(ptr noundef nonnull align 8 dereferenceable(16) %0) unnamed_addr #0 comdat align 2 {
  %2 = alloca ptr, align 8
  store ptr %0, ptr %2, align 8
  %3 = load ptr, ptr %2, align 8
  %4 = getelementptr inbounds nuw %"struct.llvm::pdb::Variant", ptr %3, i32 0, i32 0
  %5 = load i32, ptr %4, align 8
  %6 = icmp eq i32 %5, 13
  br i1 %6, label %7, label %13

7:                                                ; preds = %1
  %8 = getelementptr inbounds nuw %"struct.llvm::pdb::Variant", ptr %3, i32 0, i32 1
  %9 = load ptr, ptr %8, align 8
  %10 = icmp eq ptr %9, null
  br i1 %10, label %12, label %11

11:                                               ; preds = %7
  call void @_ZdaPv(ptr noundef %9) #6
  br label %12

12:                                               ; preds = %11, %7
  br label %13

13:                                               ; preds = %12, %1
  ret void
}

; Function Attrs: mustprogress nounwind uwtable
define linkonce_odr hidden void @_ZN4llvm9StringRefC2EPKc(ptr noundef nonnull align 8 dereferenceable(16) %0, ptr noundef %1) unnamed_addr #0 comdat align 2 {
  %3 = alloca ptr, align 8
  %4 = alloca ptr, align 8
  store ptr %0, ptr %3, align 8
  store ptr %1, ptr %4, align 8
  %5 = load ptr, ptr %3, align 8
  %6 = getelementptr inbounds nuw %"class.llvm::StringRef", ptr %5, i32 0, i32 0
  %7 = load ptr, ptr %4, align 8
  store ptr %7, ptr %6, align 8
  %8 = getelementptr inbounds nuw %"class.llvm::StringRef", ptr %5, i32 0, i32 1
  %9 = load ptr, ptr %4, align 8
  %10 = icmp ne ptr %9, null
  br i1 %10, label %11, label %14

11:                                               ; preds = %2
  %12 = load ptr, ptr %4, align 8
  %13 = call noundef i64 @_ZNSt11char_traitsIcE6lengthEPKc(ptr noundef %12)
  br label %15

14:                                               ; preds = %2
  br label %15

15:                                               ; preds = %14, %11
  %16 = phi i64 [ %13, %11 ], [ 0, %14 ]
  store i64 %16, ptr %8, align 8
  ret void
}

; Function Attrs: mustprogress nounwind uwtable
define dso_local void @_ZNK4llvm3pdb22NativeSymbolEnumerator4dumpERNS_11raw_ostreamEiNS0_16PdbSymbolIdFieldES4_(ptr noundef nonnull align 8 dereferenceable(72) %0, ptr noundef nonnull align 8 dereferenceable(48) %1, i32 noundef %2, i32 noundef %3, i32 noundef %4) unnamed_addr #0 align 2 {
  %6 = alloca ptr, align 8
  %7 = alloca ptr, align 8
  %8 = alloca i32, align 4
  %9 = alloca i32, align 4
  %10 = alloca i32, align 4
  %11 = alloca %"class.llvm::StringRef", align 8
  %12 = alloca %"class.llvm::StringRef", align 8
  %13 = alloca %"class.llvm::StringRef", align 8
  %14 = alloca %"class.std::__cxx11::basic_string", align 8
  %15 = alloca %"class.llvm::StringRef", align 8
  %16 = alloca %"class.llvm::StringRef", align 8
  %17 = alloca %"class.llvm::StringRef", align 8
  %18 = alloca %"class.llvm::StringRef", align 8
  %19 = alloca %"class.llvm::StringRef", align 8
  %20 = alloca %"class.llvm::StringRef", align 8
  %21 = alloca %"class.llvm::StringRef", align 8
  %22 = alloca %"struct.llvm::pdb::Variant", align 8
  store ptr %0, ptr %6, align 8
  store ptr %1, ptr %7, align 8
  store i32 %2, ptr %8, align 4
  store i32 %3, ptr %9, align 4
  store i32 %4, ptr %10, align 4
  %23 = load ptr, ptr %6, align 8
  %24 = load ptr, ptr %7, align 8
  %25 = load i32, ptr %8, align 4
  %26 = load i32, ptr %9, align 4
  %27 = load i32, ptr %10, align 4
  call void @_ZNK4llvm3pdb15NativeRawSymbol4dumpERNS_11raw_ostreamEiNS0_16PdbSymbolIdFieldES4_(ptr noundef nonnull align 8 dereferenceable(24) %23, ptr noundef nonnull align 8 dereferenceable(48) %24, i32 noundef %25, i32 noundef %26, i32 noundef %27)
  %28 = load ptr, ptr %7, align 8
  call void @_ZN4llvm9StringRefC2EPKc(ptr noundef nonnull align 8 dereferenceable(16) %11, ptr noundef @.str)
  %29 = load ptr, ptr %23, align 8
  %30 = getelementptr inbounds ptr, ptr %29, i64 28
  %31 = load ptr, ptr %30, align 8
  %32 = call noundef i32 %31(ptr noundef nonnull align 8 dereferenceable(72) %23)
  %33 = load i32, ptr %8, align 4
  %34 = getelementptr inbounds nuw %"class.llvm::pdb::NativeRawSymbol", ptr %23, i32 0, i32 1
  %35 = load ptr, ptr %34, align 8
  %36 = load i32, ptr %9, align 4
  %37 = load i32, ptr %10, align 4
  %38 = getelementptr inbounds nuw { ptr, i64 }, ptr %11, i32 0, i32 0
  %39 = load ptr, ptr %38, align 8
  %40 = getelementptr inbounds nuw { ptr, i64 }, ptr %11, i32 0, i32 1
  %41 = load i64, ptr %40, align 8
  call void @_ZN4llvm3pdb17dumpSymbolIdFieldERNS_11raw_ostreamENS_9StringRefEjiRKNS0_11IPDBSessionENS0_16PdbSymbolIdFieldES7_S7_(ptr noundef nonnull align 8 dereferenceable(48) %28, ptr %39, i64 %41, i32 noundef %32, i32 noundef %33, ptr noundef nonnull align 8 dereferenceable(8) %35, i32 noundef 4, i32 noundef %36, i32 noundef %37)
  %42 = load ptr, ptr %7, align 8
  call void @_ZN4llvm9StringRefC2EPKc(ptr noundef nonnull align 8 dereferenceable(16) %12, ptr noundef @.str.1)
  %43 = load ptr, ptr %23, align 8
  %44 = getelementptr inbounds ptr, ptr %43, i64 34
  %45 = load ptr, ptr %44, align 8
  %46 = call noundef i32 %45(ptr noundef nonnull align 8 dereferenceable(72) %23)
  %47 = load i32, ptr %8, align 4
  %48 = getelementptr inbounds nuw %"class.llvm::pdb::NativeRawSymbol", ptr %23, i32 0, i32 1
  %49 = load ptr, ptr %48, align 8
  %50 = load i32, ptr %9, align 4
  %51 = load i32, ptr %10, align 4
  %52 = getelementptr inbounds nuw { ptr, i64 }, ptr %12, i32 0, i32 0
  %53 = load ptr, ptr %52, align 8
  %54 = getelementptr inbounds nuw { ptr, i64 }, ptr %12, i32 0, i32 1
  %55 = load i64, ptr %54, align 8
  call void @_ZN4llvm3pdb17dumpSymbolIdFieldERNS_11raw_ostreamENS_9StringRefEjiRKNS0_11IPDBSessionENS0_16PdbSymbolIdFieldES7_S7_(ptr noundef nonnull align 8 dereferenceable(48) %42, ptr %53, i64 %55, i32 noundef %46, i32 noundef %47, ptr noundef nonnull align 8 dereferenceable(8) %49, i32 noundef 2, i32 noundef %50, i32 noundef %51)
  %56 = load ptr, ptr %7, align 8
  call void @_ZN4llvm9StringRefC2EPKc(ptr noundef nonnull align 8 dereferenceable(16) %13, ptr noundef @.str.2)
  %57 = load ptr, ptr %23, align 8
  %58 = getelementptr inbounds ptr, ptr %57, i64 42
  %59 = load ptr, ptr %58, align 8
  call void %59(ptr dead_on_unwind writable sret(%"class.std::__cxx11::basic_string") align 8 %14, ptr noundef nonnull align 8 dereferenceable(72) %23)
  %60 = load i32, ptr %8, align 4
  %61 = getelementptr inbounds nuw { ptr, i64 }, ptr %13, i32 0, i32 0
  %62 = load ptr, ptr %61, align 8
  %63 = getelementptr inbounds nuw { ptr, i64 }, ptr %13, i32 0, i32 1
  %64 = load i64, ptr %63, align 8
  call void @_ZN4llvm3pdb15dumpSymbolFieldINSt7__cxx1112basic_stringIcSt11char_traitsIcESaIcEEEEEvRNS_11raw_ostreamENS_9StringRefET_i(ptr noundef nonnull align 8 dereferenceable(48) %56, ptr %62, i64 %64, ptr noundef %14, i32 noundef %60)
  call void @_ZNSt7__cxx1112basic_stringIcSt11char_traitsIcESaIcEED1Ev(ptr noundef nonnull align 8 dereferenceable(32) %14) #5
  %65 = load ptr, ptr %7, align 8
  call void @_ZN4llvm9StringRefC2EPKc(ptr noundef nonnull align 8 dereferenceable(16) %15, ptr noundef @.str.3)
  %66 = load ptr, ptr %23, align 8
  %67 = getelementptr inbounds ptr, ptr %66, i64 74
  %68 = load ptr, ptr %67, align 8
  %69 = call noundef i32 %68(ptr noundef nonnull align 8 dereferenceable(72) %23)
  %70 = load i32, ptr %8, align 4
  %71 = getelementptr inbounds nuw %"class.llvm::pdb::NativeRawSymbol", ptr %23, i32 0, i32 1
  %72 = load ptr, ptr %71, align 8
  %73 = load i32, ptr %9, align 4
  %74 = load i32, ptr %10, align 4
  %75 = getelementptr inbounds nuw { ptr, i64 }, ptr %15, i32 0, i32 0
  %76 = load ptr, ptr %75, align 8
  %77 = getelementptr inbounds nuw { ptr, i64 }, ptr %15, i32 0, i32 1
  %78 = load i64, ptr %77, align 8
  call void @_ZN4llvm3pdb17dumpSymbolIdFieldERNS_11raw_ostreamENS_9StringRefEjiRKNS0_11IPDBSessionENS0_16PdbSymbolIdFieldES7_S7_(ptr noundef nonnull align 8 dereferenceable(48) %65, ptr %76, i64 %78, i32 noundef %69, i32 noundef %70, ptr noundef nonnull align 8 dereferenceable(8) %72, i32 noundef 8, i32 noundef %73, i32 noundef %74)
  %79 = load ptr, ptr %7, align 8
  call void @_ZN4llvm9StringRefC2EPKc(ptr noundef nonnull align 8 dereferenceable(16) %16, ptr noundef @.str.4)
  %80 = load ptr, ptr %23, align 8
  %81 = getelementptr inbounds ptr, ptr %80, i64 85
  %82 = load ptr, ptr %81, align 8
  %83 = call noundef i32 %82(ptr noundef nonnull align 8 dereferenceable(72) %23)
  %84 = load i32, ptr %8, align 4
  %85 = getelementptr inbounds nuw { ptr, i64 }, ptr %16, i32 0, i32 0
  %86 = load ptr, ptr %85, align 8
  %87 = getelementptr inbounds nuw { ptr, i64 }, ptr %16, i32 0, i32 1
  %88 = load i64, ptr %87, align 8
  call void @_ZN4llvm3pdb15dumpSymbolFieldINS0_12PDB_DataKindEEEvRNS_11raw_ostreamENS_9StringRefET_i(ptr noundef nonnull align 8 dereferenceable(48) %79, ptr %86, i64 %88, i32 noundef %83, i32 noundef %84)
  %89 = load ptr, ptr %7, align 8
  call void @_ZN4llvm9StringRefC2EPKc(ptr noundef nonnull align 8 dereferenceable(16) %17, ptr noundef @.str.5)
  %90 = load ptr, ptr %23, align 8
  %91 = getelementptr inbounds ptr, ptr %90, i64 91
  %92 = load ptr, ptr %91, align 8
  %93 = call noundef i32 %92(ptr noundef nonnull align 8 dereferenceable(72) %23)
  %94 = load i32, ptr %8, align 4
  %95 = getelementptr inbounds nuw { ptr, i64 }, ptr %17, i32 0, i32 0
  %96 = load ptr, ptr %95, align 8
  %97 = getelementptr inbounds nuw { ptr, i64 }, ptr %17, i32 0, i32 1
  %98 = load i64, ptr %97, align 8
  call void @_ZN4llvm3pdb15dumpSymbolFieldINS0_11PDB_LocTypeEEEvRNS_11raw_ostreamENS_9StringRefET_i(ptr noundef nonnull align 8 dereferenceable(48) %89, ptr %96, i64 %98, i32 noundef %93, i32 noundef %94)
  %99 = load ptr, ptr %7, align 8
  call void @_ZN4llvm9StringRefC2EPKc(ptr noundef nonnull align 8 dereferenceable(16) %18, ptr noundef @.str.6)
  %100 = load ptr, ptr %23, align 8
  %101 = getelementptr inbounds ptr, ptr %100, i64 103
  %102 = load ptr, ptr %101, align 8
  %103 = call noundef zeroext i1 %102(ptr noundef nonnull align 8 dereferenceable(72) %23)
  %104 = load i32, ptr %8, align 4
  %105 = getelementptr inbounds nuw { ptr, i64 }, ptr %18, i32 0, i32 0
  %106 = load ptr, ptr %105, align 8
  %107 = getelementptr inbounds nuw { ptr, i64 }, ptr %18, i32 0, i32 1
  %108 = load i64, ptr %107, align 8
  call void @_ZN4llvm3pdb15dumpSymbolFieldIbEEvRNS_11raw_ostreamENS_9StringRefET_i(ptr noundef nonnull align 8 dereferenceable(48) %99, ptr %106, i64 %108, i1 noundef zeroext %103, i32 noundef %104)
  %109 = load ptr, ptr %7, align 8
  call void @_ZN4llvm9StringRefC2EPKc(ptr noundef nonnull align 8 dereferenceable(16) %19, ptr noundef @.str.7)
  %110 = load ptr, ptr %23, align 8
  %111 = getelementptr inbounds ptr, ptr %110, i64 171
  %112 = load ptr, ptr %111, align 8
  %113 = call noundef zeroext i1 %112(ptr noundef nonnull align 8 dereferenceable(72) %23)
  %114 = load i32, ptr %8, align 4
  %115 = getelementptr inbounds nuw { ptr, i64 }, ptr %19, i32 0, i32 0
  %116 = load ptr, ptr %115, align 8
  %117 = getelementptr inbounds nuw { ptr, i64 }, ptr %19, i32 0, i32 1
  %118 = load i64, ptr %117, align 8
  call void @_ZN4llvm3pdb15dumpSymbolFieldIbEEvRNS_11raw_ostreamENS_9StringRefET_i(ptr noundef nonnull align 8 dereferenceable(48) %109, ptr %116, i64 %118, i1 noundef zeroext %113, i32 noundef %114)
  %119 = load ptr, ptr %7, align 8
  call void @_ZN4llvm9StringRefC2EPKc(ptr noundef nonnull align 8 dereferenceable(16) %20, ptr noundef @.str.8)
  %120 = load ptr, ptr %23, align 8
  %121 = getelementptr inbounds ptr, ptr %120, i64 177
  %122 = load ptr, ptr %121, align 8
  %123 = call noundef zeroext i1 %122(ptr noundef nonnull align 8 dereferenceable(72) %23)
  %124 = load i32, ptr %8, align 4
  %125 = getelementptr inbounds nuw { ptr, i64 }, ptr %20, i32 0, i32 0
  %126 = load ptr, ptr %125, align 8
  %127 = getelementptr inbounds nuw { ptr, i64 }, ptr %20, i32 0, i32 1
  %128 = load i64, ptr %127, align 8
  call void @_ZN4llvm3pdb15dumpSymbolFieldIbEEvRNS_11raw_ostreamENS_9StringRefET_i(ptr noundef nonnull align 8 dereferenceable(48) %119, ptr %126, i64 %128, i1 noundef zeroext %123, i32 noundef %124)
  %129 = load ptr, ptr %7, align 8
  call void @_ZN4llvm9StringRefC2EPKc(ptr noundef nonnull align 8 dereferenceable(16) %21, ptr noundef @.str.9)
  %130 = load ptr, ptr %23, align 8
  %131 = getelementptr inbounds ptr, ptr %130, i64 80
  %132 = load ptr, ptr %131, align 8
  call void %132(ptr dead_on_unwind writable sret(%"struct.llvm::pdb::Variant") align 8 %22, ptr noundef nonnull align 8 dereferenceable(72) %23)
  %133 = load i32, ptr %8, align 4
  %134 = getelementptr inbounds nuw { ptr, i64 }, ptr %21, i32 0, i32 0
  %135 = load ptr, ptr %134, align 8
  %136 = getelementptr inbounds nuw { ptr, i64 }, ptr %21, i32 0, i32 1
  %137 = load i64, ptr %136, align 8
  call void @_ZN4llvm3pdb15dumpSymbolFieldINS0_7VariantEEEvRNS_11raw_ostreamENS_9StringRefET_i(ptr noundef nonnull align 8 dereferenceable(48) %129, ptr %135, i64 %137, ptr noundef %22, i32 noundef %133)
  call void @_ZN4llvm3pdb7VariantD2Ev(ptr noundef nonnull align 8 dereferenceable(16) %22) #5
  ret void
}