; Function Attrs: mustprogress nounwind uwtable
define dso_local void @_ZNK4llvm3pdb22NativeSymbolEnumerator4dumpERNS_11raw_ostreamEiNS0_16PdbSymbolIdFieldES4_(ptr noundef nonnull align 8 dereferenceable(72) %0, ptr noundef nonnull align 8 dereferenceable(48) %1, i32 noundef %2, i32 noundef %3, i32 noundef %4) unnamed_addr #0 align 2 {
  %6 = alloca %"class.std::__cxx11::basic_string", align 8
  %7 = alloca %"struct.llvm::pdb::Variant", align 8
  tail call void @_ZNK4llvm3pdb15NativeRawSymbol4dumpERNS_11raw_ostreamEiNS0_16PdbSymbolIdFieldES4_(ptr noundef nonnull align 8 dereferenceable(24) %0, ptr noundef nonnull align 8 dereferenceable(48) %1, i32 noundef %2, i32 noundef %3, i32 noundef %4) #7
  %8 = load ptr, ptr %0, align 8
  %9 = getelementptr inbounds i8, ptr %8, i64 224
  %10 = load ptr, ptr %9, align 8
  %11 = tail call noundef i32 %10(ptr noundef nonnull align 8 dereferenceable(72) %0) #7
  %12 = getelementptr inbounds nuw i8, ptr %0, i64 8
  %13 = load ptr, ptr %12, align 8
  tail call void @_ZN4llvm3pdb17dumpSymbolIdFieldERNS_11raw_ostreamENS_9StringRefEjiRKNS0_11IPDBSessionENS0_16PdbSymbolIdFieldES7_S7_(ptr noundef nonnull align 8 dereferenceable(48) %1, ptr nonnull @.str, i64 13, i32 noundef %11, i32 noundef %2, ptr noundef nonnull align 8 dereferenceable(8) %13, i32 noundef 4, i32 noundef %3, i32 noundef %4) #7
  %14 = load ptr, ptr %0, align 8
  %15 = getelementptr inbounds i8, ptr %14, i64 272
  %16 = load ptr, ptr %15, align 8
  %17 = tail call noundef i32 %16(ptr noundef nonnull align 8 dereferenceable(72) %0) #7
  %18 = load ptr, ptr %12, align 8
  tail call void @_ZN4llvm3pdb17dumpSymbolIdFieldERNS_11raw_ostreamENS_9StringRefEjiRKNS0_11IPDBSessionENS0_16PdbSymbolIdFieldES7_S7_(ptr noundef nonnull align 8 dereferenceable(48) %1, ptr nonnull @.str.1, i64 15, i32 noundef %17, i32 noundef %2, ptr noundef nonnull align 8 dereferenceable(8) %18, i32 noundef 2, i32 noundef %3, i32 noundef %4) #7
  %19 = load ptr, ptr %0, align 8
  %20 = getelementptr inbounds i8, ptr %19, i64 336
  %21 = load ptr, ptr %20, align 8
  call void %21(ptr dead_on_unwind nonnull writable sret(%"class.std::__cxx11::basic_string") align 8 %6, ptr noundef nonnull align 8 dereferenceable(72) %0) #7
  call void @_ZN4llvm3pdb15dumpSymbolFieldINSt7__cxx1112basic_stringIcSt11char_traitsIcESaIcEEEEEvRNS_11raw_ostreamENS_9StringRefET_i(ptr noundef nonnull align 8 dereferenceable(48) %1, ptr nonnull @.str.2, i64 4, ptr noundef nonnull %6, i32 noundef %2)
  call void @_ZNSt7__cxx1112basic_stringIcSt11char_traitsIcESaIcEED1Ev(ptr noundef nonnull align 8 dereferenceable(32) %6) #7
  %22 = load ptr, ptr %0, align 8
  %23 = getelementptr inbounds i8, ptr %22, i64 592
  %24 = load ptr, ptr %23, align 8
  %25 = call noundef i32 %24(ptr noundef nonnull align 8 dereferenceable(72) %0) #7
  %26 = load ptr, ptr %12, align 8
  call void @_ZN4llvm3pdb17dumpSymbolIdFieldERNS_11raw_ostreamENS_9StringRefEjiRKNS0_11IPDBSessionENS0_16PdbSymbolIdFieldES7_S7_(ptr noundef nonnull align 8 dereferenceable(48) %1, ptr nonnull @.str.3, i64 6, i32 noundef %25, i32 noundef %2, ptr noundef nonnull align 8 dereferenceable(8) %26, i32 noundef 8, i32 noundef %3, i32 noundef %4) #7
  %27 = load ptr, ptr %0, align 8
  %28 = getelementptr inbounds i8, ptr %27, i64 680
  %29 = load ptr, ptr %28, align 8
  %30 = call noundef i32 %29(ptr noundef nonnull align 8 dereferenceable(72) %0) #7
  call void @_ZN4llvm3pdb15dumpSymbolFieldINS0_12PDB_DataKindEEEvRNS_11raw_ostreamENS_9StringRefET_i(ptr noundef nonnull align 8 dereferenceable(48) %1, ptr nonnull @.str.4, i64 8, i32 noundef %30, i32 noundef %2)
  %31 = load ptr, ptr %0, align 8
  %32 = getelementptr inbounds i8, ptr %31, i64 728
  %33 = load ptr, ptr %32, align 8
  %34 = call noundef i32 %33(ptr noundef nonnull align 8 dereferenceable(72) %0) #7
  call void @_ZN4llvm3pdb15dumpSymbolFieldINS0_11PDB_LocTypeEEEvRNS_11raw_ostreamENS_9StringRefET_i(ptr noundef nonnull align 8 dereferenceable(48) %1, ptr nonnull @.str.5, i64 12, i32 noundef %34, i32 noundef %2)
  %35 = load ptr, ptr %0, align 8
  %36 = getelementptr inbounds i8, ptr %35, i64 824
  %37 = load ptr, ptr %36, align 8
  %38 = call noundef zeroext i1 %37(ptr noundef nonnull align 8 dereferenceable(72) %0) #7
  call void @_ZN4llvm3pdb15dumpSymbolFieldIbEEvRNS_11raw_ostreamENS_9StringRefET_i(ptr noundef nonnull align 8 dereferenceable(48) %1, ptr nonnull @.str.6, i64 9, i1 noundef zeroext %38, i32 noundef %2)
  %39 = load ptr, ptr %0, align 8
  %40 = getelementptr inbounds i8, ptr %39, i64 1368
  %41 = load ptr, ptr %40, align 8
  %42 = call noundef zeroext i1 %41(ptr noundef nonnull align 8 dereferenceable(72) %0) #7
  call void @_ZN4llvm3pdb15dumpSymbolFieldIbEEvRNS_11raw_ostreamENS_9StringRefET_i(ptr noundef nonnull align 8 dereferenceable(48) %1, ptr nonnull @.str.7, i64 13, i1 noundef zeroext %42, i32 noundef %2)
  %43 = load ptr, ptr %0, align 8
  %44 = getelementptr inbounds i8, ptr %43, i64 1416
  %45 = load ptr, ptr %44, align 8
  %46 = call noundef zeroext i1 %45(ptr noundef nonnull align 8 dereferenceable(72) %0) #7
  call void @_ZN4llvm3pdb15dumpSymbolFieldIbEEvRNS_11raw_ostreamENS_9StringRefET_i(ptr noundef nonnull align 8 dereferenceable(48) %1, ptr nonnull @.str.8, i64 12, i1 noundef zeroext %46, i32 noundef %2)
  %47 = load ptr, ptr %0, align 8
  %48 = getelementptr inbounds i8, ptr %47, i64 640
  %49 = load ptr, ptr %48, align 8
  call void %49(ptr dead_on_unwind nonnull writable sret(%"struct.llvm::pdb::Variant") align 8 %7, ptr noundef nonnull align 8 dereferenceable(72) %0) #7
  call void @_ZN4llvm3pdb15dumpSymbolFieldINS0_7VariantEEEvRNS_11raw_ostreamENS_9StringRefET_i(ptr noundef nonnull align 8 dereferenceable(48) %1, ptr nonnull @.str.9, i64 5, ptr noundef nonnull %7, i32 noundef %2)
  %50 = load i32, ptr %7, align 8
  %51 = icmp eq i32 %50, 13
  br i1 %51, label %52, label %_ZN4llvm3pdb7VariantD2Ev.exit

52:                                               ; preds = %5
  %53 = getelementptr inbounds nuw i8, ptr %7, i64 8
  %54 = load ptr, ptr %53, align 8
  %55 = icmp eq ptr %54, null
  br i1 %55, label %_ZN4llvm3pdb7VariantD2Ev.exit, label %56

56:                                               ; preds = %52
  call void @_ZdaPv(ptr noundef nonnull %54) #8
  br label %_ZN4llvm3pdb7VariantD2Ev.exit

_ZN4llvm3pdb7VariantD2Ev.exit:                    ; preds = %5, %52, %56
  ret void
}